target datalayout = "e-m:e-p270:32:32-p271:32:32-p272:64:64-i64:64-i128:128-f80:128-n8:16:32:64-S128"
target triple = "x86_64-pc-linux-gnu"

%"struct.gmx::DensityFittingForceProviderState" = type { i64, %"struct.gmx::ExponentialMovingAverageState", float }
%"struct.gmx::ExponentialMovingAverageState" = type <{ float, float, i8, [3 x i8] }>
%"class.gmx::DensityFittingForceProvider::Impl" = type { ptr, %"struct.gmx::DensityFittingForceProviderState", %"struct.gmx::DensityFittingForceProviderState", %"class.gmx::LocalAtomSet", %"struct.gmx::GaussianSpreadKernelParameters::Shape", %"class.gmx::GaussTransform3D", %"class.gmx::DensitySimilarityMeasure", %"class.gmx::DensityFittingForce", %"class.std::vector.55", %"class.std::vector.55", %"class.gmx::DensityFittingAmplitudeLookup", %"class.gmx::TranslateAndScale", %"class.gmx::BasicVector.76", i32, %"class.std::optional", [4 x i8], %"class.std::optional.77" }
%"class.gmx::LocalAtomSet" = type { ptr }
%"struct.gmx::GaussianSpreadKernelParameters::Shape" = type { %"class.gmx::BasicVector", double }
%"class.gmx::BasicVector" = type { [3 x double] }
%"class.gmx::GaussTransform3D" = type { %"class.std::unique_ptr.31" }
%"class.std::unique_ptr.31" = type { %"struct.std::__uniq_ptr_data.32" }
%"struct.std::__uniq_ptr_data.32" = type { %"class.std::__uniq_ptr_impl.33" }
%"class.std::__uniq_ptr_impl.33" = type { %"class.std::tuple.34" }
%"class.std::tuple.34" = type { %"struct.std::_Tuple_impl.35" }
%"struct.std::_Tuple_impl.35" = type { %"struct.std::_Head_base.38" }
%"struct.std::_Head_base.38" = type { ptr }
%"class.gmx::DensitySimilarityMeasure" = type { %"class.std::unique_ptr.39" }
%"class.std::unique_ptr.39" = type { %"struct.std::__uniq_ptr_data.40" }
%"struct.std::__uniq_ptr_data.40" = type { %"class.std::__uniq_ptr_impl.41" }
%"class.std::__uniq_ptr_impl.41" = type { %"class.std::tuple.42" }
%"class.std::tuple.42" = type { %"struct.std::_Tuple_impl.43" }
%"struct.std::_Tuple_impl.43" = type { %"struct.std::_Head_base.46" }
%"struct.std::_Head_base.46" = type { ptr }
%"class.gmx::DensityFittingForce" = type { %"class.std::unique_ptr.47" }
%"class.std::unique_ptr.47" = type { %"struct.std::__uniq_ptr_data.48" }
%"struct.std::__uniq_ptr_data.48" = type { %"class.std::__uniq_ptr_impl.49" }
%"class.std::__uniq_ptr_impl.49" = type { %"class.std::tuple.50" }
%"class.std::tuple.50" = type { %"struct.std::_Tuple_impl.51" }
%"struct.std::_Tuple_impl.51" = type { %"struct.std::_Head_base.54" }
%"struct.std::_Head_base.54" = type { ptr }
%"class.std::vector.55" = type { %"struct.std::_Vector_base.56" }
%"struct.std::_Vector_base.56" = type { %"struct.std::_Vector_base<gmx::BasicVector<float>, std::allocator<gmx::BasicVector<float>>>::_Vector_impl" }
%"struct.std::_Vector_base<gmx::BasicVector<float>, std::allocator<gmx::BasicVector<float>>>::_Vector_impl" = type { %"struct.std::_Vector_base<gmx::BasicVector<float>, std::allocator<gmx::BasicVector<float>>>::_Vector_impl_data" }
%"struct.std::_Vector_base<gmx::BasicVector<float>, std::allocator<gmx::BasicVector<float>>>::_Vector_impl_data" = type { ptr, ptr, ptr }
%"class.gmx::DensityFittingAmplitudeLookup" = type { %"class.std::unique_ptr.60" }
%"class.std::unique_ptr.60" = type { %"struct.std::__uniq_ptr_data.61" }
%"struct.std::__uniq_ptr_data.61" = type { %"class.std::__uniq_ptr_impl.62" }
%"class.std::__uniq_ptr_impl.62" = type { %"class.std::tuple.63" }
%"class.std::tuple.63" = type { %"struct.std::_Tuple_impl.64" }
%"struct.std::_Tuple_impl.64" = type { %"struct.std::_Head_base.67" }
%"struct.std::_Head_base.67" = type { ptr }
%"class.gmx::TranslateAndScale" = type { %"class.std::unique_ptr.68" }
%"class.std::unique_ptr.68" = type { %"struct.std::__uniq_ptr_data.69" }
%"struct.std::__uniq_ptr_data.69" = type { %"class.std::__uniq_ptr_impl.70" }
%"class.std::__uniq_ptr_impl.70" = type { %"class.std::tuple.71" }
%"class.std::tuple.71" = type { %"struct.std::_Tuple_impl.72" }
%"struct.std::_Tuple_impl.72" = type { %"struct.std::_Head_base.75" }
%"struct.std::_Head_base.75" = type { ptr }
%"class.gmx::BasicVector.76" = type { [3 x float] }
%"class.std::optional" = type { %"struct.std::_Optional_base" }
%"struct.std::_Optional_base" = type { %"struct.std::_Optional_payload" }
%"struct.std::_Optional_payload" = type { %"struct.std::_Optional_payload_base.base", [3 x i8] }
%"struct.std::_Optional_payload_base.base" = type <{ %"union.std::_Optional_payload_base<gmx::ExponentialMovingAverage>::_Storage", i8 }>
%"union.std::_Optional_payload_base<gmx::ExponentialMovingAverage>::_Storage" = type { %"class.gmx::ExponentialMovingAverage" }
%"class.gmx::ExponentialMovingAverage" = type { %"struct.gmx::ExponentialMovingAverageState", float }
%"class.std::optional.77" = type { %"struct.std::_Optional_base.78" }
%"struct.std::_Optional_base.78" = type { %"struct.std::_Optional_payload.80" }
%"struct.std::_Optional_payload.80" = type { %"struct.std::_Optional_payload_base.base.82", [7 x i8] }
%"struct.std::_Optional_payload_base.base.82" = type { %"union.std::_Optional_payload_base<gmx::AffineTransformation>::_Storage", i8 }
%"union.std::_Optional_payload_base<gmx::AffineTransformation>::_Storage" = type { %"class.gmx::AffineTransformation" }
%"class.gmx::AffineTransformation" = type <{ %"class.gmx::MultiDimArray", %"class.gmx::BasicVector.76", [4 x i8] }>
%"class.gmx::MultiDimArray" = type { %"struct.std::array", %"class.gmx::basic_mdspan" }
%"struct.std::array" = type { [9 x float] }
%"class.gmx::basic_mdspan" = type { [8 x i8], ptr }
%"struct.std::_Optional_payload_base" = type <{ %"union.std::_Optional_payload_base<gmx::ExponentialMovingAverage>::_Storage", i8, [3 x i8] }>

; Function Attrs: mustprogress nounwind uwtable
define linkonce_odr noundef nonnull align 4 dereferenceable(16) ptr @_ZNSt22_Optional_payload_baseIN3gmx24ExponentialMovingAverageEE6_M_getEv(ptr noundef nonnull align 4 dereferenceable(17) %0) #3 comdat align 2 {
  %2 = alloca ptr, align 8
  store ptr %0, ptr %2, align 8, !tbaa !397
  %3 = load ptr, ptr %2, align 8
  %4 = getelementptr inbounds nuw %"struct.std::_Optional_payload_base", ptr %3, i32 0, i32 0
  ret ptr %4
}

; Function Attrs: mustprogress nounwind uwtable
define linkonce_odr noundef nonnull align 4 dereferenceable(16) ptr @_ZNSt19_Optional_base_implIN3gmx24ExponentialMovingAverageESt14_Optional_baseIS1_Lb1ELb1EEE6_M_getEv(ptr noundef nonnull align 1 dereferenceable(1) %0) #3 comdat align 2 {
  %2 = alloca ptr, align 8
  store ptr %0, ptr %2, align 8, !tbaa !411
  %3 = load ptr, ptr %2, align 8
  br label %4

4:                                                ; preds = %1
  br label %5

5:                                                ; preds = %4
  br label %6

6:                                                ; preds = %5
  %7 = getelementptr inbounds nuw %"struct.std::_Optional_base", ptr %3, i32 0, i32 0
  %8 = call noundef nonnull align 4 dereferenceable(16) ptr @_ZNSt22_Optional_payload_baseIN3gmx24ExponentialMovingAverageEE6_M_getEv(ptr noundef nonnull align 4 dereferenceable(17) %7) #4
  ret ptr %8
}

; Function Attrs: mustprogress nounwind uwtable
define linkonce_odr noundef zeroext i1 @_ZNKSt19_Optional_base_implIN3gmx24ExponentialMovingAverageESt14_Optional_baseIS1_Lb1ELb1EEE13_M_is_engagedEv(ptr noundef nonnull align 1 dereferenceable(1) %0) #3 comdat align 2 {
  %2 = alloca ptr, align 8
  store ptr %0, ptr %2, align 8, !tbaa !411
  %3 = load ptr, ptr %2, align 8
  %4 = getelementptr inbounds nuw %"struct.std::_Optional_base", ptr %3, i32 0, i32 0
  %5 = getelementptr inbounds nuw %"struct.std::_Optional_payload_base", ptr %4, i32 0, i32 1
  %6 = load i8, ptr %5, align 4, !tbaa !399, !range !110, !noundef !111
  %7 = trunc i8 %6 to i1
  ret i1 %7
}

; Function Attrs: mustprogress nounwind uwtable
define linkonce_odr noundef ptr @_ZNSt8optionalIN3gmx24ExponentialMovingAverageEEptEv(ptr noundef nonnull align 4 dereferenceable(20) %0) #3 comdat align 2 {
  %2 = alloca ptr, align 8
  store ptr %0, ptr %2, align 8, !tbaa !359
  %3 = load ptr, ptr %2, align 8
  %4 = call noundef nonnull align 4 dereferenceable(16) ptr @_ZNSt19_Optional_base_implIN3gmx24ExponentialMovingAverageESt14_Optional_baseIS1_Lb1ELb1EEE6_M_getEv(ptr noundef nonnull align 1 dereferenceable(1) %3) #4
  ret ptr %4
}

; Function Attrs: mustprogress nounwind uwtable
define linkonce_odr noundef zeroext i1 @_ZNKSt8optionalIN3gmx24ExponentialMovingAverageEE9has_valueEv(ptr noundef nonnull align 4 dereferenceable(20) %0) #3 comdat align 2 {
  %2 = alloca ptr, align 8
  store ptr %0, ptr %2, align 8, !tbaa !359
  %3 = load ptr, ptr %2, align 8
  %4 = call noundef zeroext i1 @_ZNKSt19_Optional_base_implIN3gmx24ExponentialMovingAverageESt14_Optional_baseIS1_Lb1ELb1EEE13_M_is_engagedEv(ptr noundef nonnull align 1 dereferenceable(1) %3) #4
  ret i1 %4
}

; Function Attrs: mustprogress uwtable
define void @_ZN3gmx27DensityFittingForceProvider4Impl5stateEv(ptr dead_on_unwind noalias writable sret(%"struct.gmx::DensityFittingForceProviderState") align 8 %0, ptr noundef nonnull align 8 dereferenceable(304) %1) #0 align 2 {
  %3 = alloca ptr, align 8
  store ptr %1, ptr %3, align 8, !tbaa !244
  %4 = load ptr, ptr %3, align 8
  %5 = getelementptr inbounds nuw %"class.gmx::DensityFittingForceProvider::Impl", ptr %4, i32 0, i32 14
  %6 = call noundef zeroext i1 @_ZNKSt8optionalIN3gmx24ExponentialMovingAverageEE9has_valueEv(ptr noundef nonnull align 4 dereferenceable(20) %5) #4
  br i1 %6, label %7, label %13

7:                                                ; preds = %2
  %8 = getelementptr inbounds nuw %"class.gmx::DensityFittingForceProvider::Impl", ptr %4, i32 0, i32 14
  %9 = call noundef ptr @_ZNSt8optionalIN3gmx24ExponentialMovingAverageEEptEv(ptr noundef nonnull align 4 dereferenceable(20) %8) #4
  %10 = call noundef nonnull align 4 dereferenceable(9) ptr @_ZNK3gmx24ExponentialMovingAverage5stateEv(ptr noundef nonnull align 4 dereferenceable(16) %9)
  %11 = getelementptr inbounds nuw %"class.gmx::DensityFittingForceProvider::Impl", ptr %4, i32 0, i32 1
  %12 = getelementptr inbounds nuw %"struct.gmx::DensityFittingForceProviderState", ptr %11, i32 0, i32 1
  call void @llvm.memcpy.p0.p0.i64(ptr align 8 %12, ptr align 4 %10, i64 9, i1 false), !tbaa.struct !225
  br label %13

13:                                               ; preds = %7, %2
  %14 = getelementptr inbounds nuw %"class.gmx::DensityFittingForceProvider::Impl", ptr %4, i32 0, i32 1
  call void @llvm.memcpy.p0.p0.i64(ptr align 8 %0, ptr align 8 %14, i64 24, i1 false), !tbaa.struct !270
  ret void
}