; Function Attrs: mustprogress uwtable
define void @_ZN3gmx27DensityFittingForceProvider4Impl5stateEv(ptr dead_on_unwind noalias writable writeonly sret(%"struct.gmx::DensityFittingForceProviderState") align 8 captures(none) initializes((0, 24)) %0, ptr noundef nonnull align 8 dereferenceable(304) %1) local_unnamed_addr #0 align 2 {
  %3 = getelementptr inbounds nuw i8, ptr %1, i64 216
  %4 = load i8, ptr %3, align 8, !tbaa !205, !range !208, !noundef !209
  %5 = trunc nuw i8 %4 to i1
  br i1 %5, label %6, label %10

6:                                                ; preds = %2
  %7 = getelementptr inbounds nuw i8, ptr %1, i64 200
  %8 = tail call noundef nonnull align 4 dereferenceable(9) ptr @_ZNK3gmx24ExponentialMovingAverage5stateEv(ptr noundef nonnull align 4 dereferenceable(16) %7)
  %9 = getelementptr inbounds nuw i8, ptr %1, i64 16
  tail call void @llvm.memcpy.p0.p0.i64(ptr noundef nonnull align 8 dereferenceable(9) %9, ptr noundef nonnull align 4 dereferenceable(9) %8, i64 9, i1 false), !tbaa.struct !274
  br label %10

10:                                               ; preds = %6, %2
  %11 = getelementptr inbounds nuw i8, ptr %1, i64 8
  tail call void @llvm.memcpy.p0.p0.i64(ptr noundef nonnull align 8 dereferenceable(24) %0, ptr noundef nonnull align 8 dereferenceable(24) %11, i64 24, i1 false), !tbaa.struct !120
  ret void
}